; Function Attrs: mustprogress uwtable
define void @_ZN7IncVPSC10moveBlocksEv(ptr noundef nonnull readonly align 8 dereferenceable(112) %0) local_unnamed_addr #3 align 2 personality ptr @__gxx_personality_v0 {
  %2 = getelementptr inbounds i8, ptr %0, i64 32
  %3 = load ptr, ptr %2, align 8
  %4 = getelementptr inbounds i8, ptr %0, i64 16
  %.not11 = icmp eq ptr %3, %4
  br i1 %.not11, label %._crit_edge, label %.lr.ph

.lr.ph:                                           ; preds = %1, %.lr.ph
  %.sroa.08.012 = phi ptr [ %13, %.lr.ph ], [ %3, %1 ]
  %5 = getelementptr inbounds i8, ptr %.sroa.08.012, i64 32
  %6 = load ptr, ptr %5, align 8
  %7 = tail call noundef double @_ZN5Block23desiredWeightedPositionEv(ptr noundef nonnull align 8 dereferenceable(80) %6)
  %8 = getelementptr inbounds i8, ptr %6, i64 40
  store double %7, ptr %8, align 8
  %9 = getelementptr inbounds i8, ptr %6, i64 32
  %10 = load double, ptr %9, align 8
  %11 = fdiv double %7, %10
  %12 = getelementptr inbounds i8, ptr %6, i64 24
  store double %11, ptr %12, align 8
  %13 = tail call noundef ptr @_ZSt18_Rb_tree_incrementPKSt18_Rb_tree_node_base(ptr noundef %.sroa.08.012) #21
  %.not = icmp eq ptr %13, %4
  br i1 %.not, label %._crit_edge, label %.lr.ph

._crit_edge:                                      ; preds = %.lr.ph, %1
  ret void
}